; Function Attrs: mustprogress nofree nounwind memory(read, argmem: readwrite) uwtable
define void @_ZN10duckdb_hll10sdstolowerEPc(ptr noundef captures(none) %0) local_unnamed_addr #20 {
  %2 = getelementptr inbounds i8, ptr %0, i64 -1
  %3 = load i8, ptr %2, align 1, !tbaa !20
  %4 = zext i8 %3 to i32
  %5 = and i32 %4, 7
  switch i32 %5, label %._crit_edge [
    i32 0, label %6
    i32 1, label %9
    i32 2, label %13
    i32 3, label %17
    i32 4, label %21
  ]

6:                                                ; preds = %1
  %7 = lshr i32 %4, 3
  %8 = zext nneg i32 %7 to i64
  br label %_ZN10duckdb_hllL6sdslenEPc.exit

9:                                                ; preds = %1
  %10 = getelementptr inbounds i8, ptr %0, i64 -4
  %11 = load i8, ptr %10, align 1, !tbaa !3
  %12 = zext i8 %11 to i64
  br label %_ZN10duckdb_hllL6sdslenEPc.exit

13:                                               ; preds = %1
  %14 = getelementptr inbounds i8, ptr %0, i64 -6
  %15 = load i16, ptr %14, align 1, !tbaa !8
  %16 = zext i16 %15 to i64
  br label %_ZN10duckdb_hllL6sdslenEPc.exit

17:                                               ; preds = %1
  %18 = getelementptr inbounds i8, ptr %0, i64 -10
  %19 = load i32, ptr %18, align 1, !tbaa !12
  %20 = zext i32 %19 to i64
  br label %_ZN10duckdb_hllL6sdslenEPc.exit

21:                                               ; preds = %1
  %22 = getelementptr inbounds i8, ptr %0, i64 -18
  %23 = load i64, ptr %22, align 1, !tbaa !16
  br label %_ZN10duckdb_hllL6sdslenEPc.exit

_ZN10duckdb_hllL6sdslenEPc.exit:                  ; preds = %6, %9, %13, %17, %21
  %.0.i = phi i64 [ %23, %21 ], [ %20, %17 ], [ %16, %13 ], [ %12, %9 ], [ %8, %6 ]
  %.not = icmp eq i64 %.0.i, 0
  br i1 %.not, label %._crit_edge, label %.lr.ph

.lr.ph:                                           ; preds = %_ZN10duckdb_hllL6sdslenEPc.exit, %.lr.ph
  %.07 = phi i64 [ %29, %.lr.ph ], [ 0, %_ZN10duckdb_hllL6sdslenEPc.exit ]
  %24 = getelementptr inbounds nuw i8, ptr %0, i64 %.07
  %25 = load i8, ptr %24, align 1, !tbaa !20
  %26 = sext i8 %25 to i32
  %27 = tail call i32 @tolower(i32 noundef %26) #29
  %28 = trunc i32 %27 to i8
  store i8 %28, ptr %24, align 1, !tbaa !20
  %29 = add nuw i64 %.07, 1
  %exitcond.not = icmp eq i64 %29, %.0.i
  br i1 %exitcond.not, label %._crit_edge, label %.lr.ph, !llvm.loop !36

._crit_edge:                                      ; preds = %.lr.ph, %1, %_ZN10duckdb_hllL6sdslenEPc.exit
  ret void
}